; Function Attrs: mustprogress nofree norecurse nosync nounwind willreturn memory(argmem: write) uwtable
define hidden void @_ZN4cvc56parser6ParserC2EPNS_6SolverEPNS0_10SymManagerE(ptr nocapture noundef nonnull writeonly align 8 dereferenceable(41) %this, ptr noundef %solver, ptr noundef %sm) unnamed_addr #5 align 2 personality ptr @__gxx_personality_v0 {
entry:
  store ptr getelementptr inbounds ({ [10 x ptr] }, ptr @_ZTVN4cvc56parser6ParserE, i64 0, i32 0, i64 2), ptr %this, align 8
  %d_solver = getelementptr inbounds i8, ptr %this, i64 8
  store ptr %solver, ptr %d_solver, align 8
  %d_sm = getelementptr inbounds i8, ptr %this, i64 16
  store ptr %sm, ptr %d_sm, align 8
  %d_lex = getelementptr inbounds i8, ptr %this, i64 24
  %d_done = getelementptr inbounds i8, ptr %this, i64 40
  tail call void @llvm.memset.p0.i64(ptr noundef nonnull align 8 dereferenceable(16) %d_lex, i8 0, i64 16, i1 false)
  store i8 1, ptr %d_done, align 8
  ret void
}